target datalayout = "e-m:e-p270:32:32-p271:32:32-p272:64:64-i64:64-i128:128-f80:128-n8:16:32:64-S128"
target triple = "x86_64-pc-linux-gnu"

%struct.AVCodecContext = type { ptr, i32, i32, ptr, i32, i32, ptr, ptr, ptr, i64, i32, i32, ptr, i32, %struct.AVRational, %struct.AVRational, %struct.AVRational, i32, i32, i32, i32, i32, %struct.AVRational, i32, i32, i32, i32, i32, i32, i32, i32, i32, i32, i32, ptr, ptr, i32, float, float, float, float, float, float, float, float, float, i32, i32, i32, i32, i32, i32, i32, i32, i32, i32, i32, i32, ptr, ptr, ptr, i32, i32, i32, i32, i32, i32, i32, i32, i32, i32, %struct.AVChannelLayout, i32, i32, i32, i32, i32, i32, i32, i32, ptr, i32, i32, i32, float, float, i32, i32, i32, i32, i32, ptr, i64, i64, float, float, i32, i32, ptr, ptr, i32, i32, i32, i32, i32, ptr, ptr, ptr, ptr, i32, i32, [8 x i64], i32, i32, i32, i32, i32, i32, i32, ptr, ptr, i32, i32, i32, i32, i32, i32, i32, i32, i32, i32, ptr, ptr, i32, i32, ptr, ptr, ptr, ptr, i32, i32, i64, i32, i32, i64, ptr, i64, ptr, i32, ptr, i32 }
%struct.AVRational = type { i32, i32 }
%struct.AVChannelLayout = type { i32, i32, %union.anon.1, ptr }
%union.anon.1 = type { i64 }
%struct.VAAPIEncodeContext = type { %struct.FFHWBaseEncodeContext, ptr, i32, i32, i32, i32, i32, i32, ptr, ptr, i32, i32, i32, i32, i32, i32, [4 x %struct._VAConfigAttrib], i32, i32, i32, ptr, ptr, [4 x i32], [4 x ptr], [4 x i64], i32, %struct._VAEncMiscParameterRateControl, %struct._VAEncMiscParameterHRD, %struct._VAEncMiscParameterFrameRate, %struct._VAEncMiscParameterBufferMaxFrameSize, %struct._VAEncMiscParameterBufferQualityLevel, ptr, ptr, i32, i32, i32, i32, i32, i32, [20 x i32], [22 x i32], [21 x i32], [23 x i32], i32, i32, ptr, i32, i32 }
%struct.FFHWBaseEncodeContext = type { ptr, ptr, ptr, i32, i32, i32, i32, i32, i32, ptr, ptr, ptr, ptr, ptr, ptr, ptr, ptr, [2 x ptr], i32, i64, i64, i64, i64, i64, i64, i64, [112 x i64], i32, i32, i32, i32, i32, i32, i32, i32, i32, i32, i32, i32, i32, i32, i32, i32, ptr, i32, ptr, i32, ptr }
%struct._VAConfigAttrib = type { i32, i32 }
%struct._VAEncMiscParameterRateControl = type { i32, i32, i32, i32, i32, i32, %union.anon.2, i32, i32, i32, i32, [4 x i32] }
%union.anon.2 = type { %struct.anon }
%struct.anon = type { i32 }
%struct._VAEncMiscParameterHRD = type { i32, i32, [4 x i32] }
%struct._VAEncMiscParameterFrameRate = type { i32, %union.anon.3, [4 x i32] }
%union.anon.3 = type { %struct.anon.4 }
%struct.anon.4 = type { i32 }
%struct._VAEncMiscParameterBufferMaxFrameSize = type { i32, i32, [4 x i32] }
%struct._VAEncMiscParameterBufferQualityLevel = type { i32, [4 x i32] }
%struct.VAAPIEncodeH264Context = type { %struct.VAAPIEncodeContext, %struct.FFHWBaseEncodeH264, i32, i32, i32, i32, i32, i32, i32, i32, i32, i32, i32, i32, ptr, %struct.CodedBitstreamFragment, %struct.H264RawAUD, %struct.H264RawSlice, %struct.H264RawSEIPicTiming, %struct.H264RawSEIRecoveryPoint, %struct.SEIRawUserDataUnregistered, ptr, %struct.SEIRawUserDataRegistered, ptr, i32, i32, i32 }
%struct.FFHWBaseEncodeH264 = type { %struct.H264RawSPS, %struct.H264RawPPS, %struct.H264RawSEIBufferingPeriod, i32 }
%struct.H264RawSPS = type { %struct.H264RawNALUnitHeader, i8, i8, i8, i8, i8, i8, i8, i8, i8, i8, i8, i8, i8, i8, i8, i8, [12 x i8], [6 x %struct.H264RawScalingList], [6 x %struct.H264RawScalingList], i8, i8, i8, i8, i32, i32, i8, [256 x i32], i8, i8, i16, i16, i8, i8, i8, i8, i16, i16, i16, i16, i8, %struct.H264RawVUI }
%struct.H264RawNALUnitHeader = type { i8, i8, i8, i8 }
%struct.H264RawScalingList = type { [64 x i8] }
%struct.H264RawVUI = type { i8, i8, i16, i16, i8, i8, i8, i8, i8, i8, i8, i8, i8, i8, i8, i8, i8, i32, i32, i8, i8, %struct.H264RawHRD, i8, %struct.H264RawHRD, i8, i8, i8, i8, i8, i8, i8, i8, i8, i8 }
%struct.H264RawHRD = type { i8, i8, i8, [32 x i32], [32 x i32], [32 x i8], i8, i8, i8, i8 }
%struct.H264RawPPS = type { %struct.H264RawNALUnitHeader, i8, i8, i8, i8, i8, i8, [8 x i16], [8 x i16], [8 x i16], i8, i16, i16, ptr, ptr, i8, i8, i8, i8, i8, i8, i8, i8, i8, i8, i8, i8, i8, [12 x i8], [6 x %struct.H264RawScalingList], [6 x %struct.H264RawScalingList], i8 }
%struct.H264RawSEIBufferingPeriod = type { i8, %struct.anon.5, %struct.anon.5 }
%struct.anon.5 = type { [32 x i32], [32 x i32] }
%struct.CodedBitstreamFragment = type { ptr, i64, i64, ptr, i32, i32, ptr }
%struct.H264RawAUD = type { %struct.H264RawNALUnitHeader, i8 }
%struct.H264RawSlice = type { %struct.H264RawSliceHeader, ptr, ptr, i64, i32 }
%struct.H264RawSliceHeader = type { %struct.H264RawNALUnitHeader, i32, i8, i8, i8, i16, i8, i8, i16, i16, i32, [2 x i32], i8, i8, i8, i8, i8, i8, i8, [33 x %struct.anon.6], [33 x %struct.anon.6], i8, i8, [32 x i8], [32 x i8], [32 x i8], [32 x i8], [32 x [2 x i8]], [32 x [2 x i8]], [32 x i8], [32 x i8], [32 x i8], [32 x i8], [32 x [2 x i8]], [32 x [2 x i8]], i8, i8, i8, [67 x %struct.anon.7], i8, i8, i8, i8, i8, i8, i8, i16 }
%struct.anon.6 = type { i8, i32, i8 }
%struct.anon.7 = type { i8, i32, i8, i8, i8 }
%struct.H264RawSEIPicTiming = type { i32, i32, i8, [3 x i8], [3 x %struct.H264RawSEIPicTimestamp] }
%struct.H264RawSEIPicTimestamp = type { i8, i8, i8, i8, i8, i8, i8, i8, i8, i8, i8, i8, i8, i32 }
%struct.H264RawSEIRecoveryPoint = type { i16, i8, i8, i8 }
%struct.SEIRawUserDataUnregistered = type { [16 x i8], ptr, i64 }
%struct.SEIRawUserDataRegistered = type { i8, i8, ptr, i64 }

@.str.95 = private unnamed_addr constant [86 x i8] c"H.264 baseline profile is not supported, using constrained baseline profile instead.\0A\00", align 1
@.str.96 = private unnamed_addr constant [42 x i8] c"H.264 extended profile is not supported.\0A\00", align 1
@.str.97 = private unnamed_addr constant [47 x i8] c"H.264 high 10 intra profile is not supported.\0A\00", align 1
@.str.98 = private unnamed_addr constant [45 x i8] c"H.264 non-4:2:0 profiles are not supported.\0A\00", align 1
@.str.99 = private unnamed_addr constant [55 x i8] c"Invalid level %d: must fit in 8-bit unsigned integer.\0A\00", align 1

; Function Attrs: cold nounwind optsize uwtable
define internal i32 @vaapi_encode_h264_init(ptr noundef %0) #0 {
  %2 = alloca i32, align 4
  %3 = alloca ptr, align 8
  %4 = alloca ptr, align 8
  %5 = alloca ptr, align 8
  %6 = alloca ptr, align 8
  %7 = alloca i32, align 4
  store ptr %0, ptr %3, align 8, !tbaa !4
  call void @llvm.lifetime.start.p0(i64 8, ptr %4) #10
  %8 = load ptr, ptr %3, align 8, !tbaa !4
  %9 = getelementptr inbounds nuw %struct.AVCodecContext, ptr %8, i32 0, i32 6
  %10 = load ptr, ptr %9, align 8, !tbaa !9
  store ptr %10, ptr %4, align 8, !tbaa !29
  call void @llvm.lifetime.start.p0(i64 8, ptr %5) #10
  %11 = load ptr, ptr %3, align 8, !tbaa !4
  %12 = getelementptr inbounds nuw %struct.AVCodecContext, ptr %11, i32 0, i32 6
  %13 = load ptr, ptr %12, align 8, !tbaa !9
  store ptr %13, ptr %5, align 8, !tbaa !31
  call void @llvm.lifetime.start.p0(i64 8, ptr %6) #10
  %14 = load ptr, ptr %3, align 8, !tbaa !4
  %15 = getelementptr inbounds nuw %struct.AVCodecContext, ptr %14, i32 0, i32 6
  %16 = load ptr, ptr %15, align 8, !tbaa !9
  store ptr %16, ptr %6, align 8, !tbaa !33
  %17 = load ptr, ptr %5, align 8, !tbaa !31
  %18 = getelementptr inbounds nuw %struct.VAAPIEncodeContext, ptr %17, i32 0, i32 1
  store ptr @vaapi_encode_type_h264, ptr %18, align 8, !tbaa !35
  %19 = load ptr, ptr %3, align 8, !tbaa !4
  %20 = getelementptr inbounds nuw %struct.AVCodecContext, ptr %19, i32 0, i32 121
  %21 = load i32, ptr %20, align 8, !tbaa !55
  %22 = icmp eq i32 %21, -99
  br i1 %22, label %23, label %29

23:                                               ; preds = %1
  %24 = load ptr, ptr %6, align 8, !tbaa !33
  %25 = getelementptr inbounds nuw %struct.VAAPIEncodeH264Context, ptr %24, i32 0, i32 7
  %26 = load i32, ptr %25, align 4, !tbaa !56
  %27 = load ptr, ptr %3, align 8, !tbaa !4
  %28 = getelementptr inbounds nuw %struct.AVCodecContext, ptr %27, i32 0, i32 121
  store i32 %26, ptr %28, align 8, !tbaa !55
  br label %29

29:                                               ; preds = %23, %1
  %30 = load ptr, ptr %3, align 8, !tbaa !4
  %31 = getelementptr inbounds nuw %struct.AVCodecContext, ptr %30, i32 0, i32 122
  %32 = load i32, ptr %31, align 4, !tbaa !77
  %33 = icmp eq i32 %32, -99
  br i1 %33, label %34, label %40

34:                                               ; preds = %29
  %35 = load ptr, ptr %6, align 8, !tbaa !33
  %36 = getelementptr inbounds nuw %struct.VAAPIEncodeH264Context, ptr %35, i32 0, i32 8
  %37 = load i32, ptr %36, align 8, !tbaa !78
  %38 = load ptr, ptr %3, align 8, !tbaa !4
  %39 = getelementptr inbounds nuw %struct.AVCodecContext, ptr %38, i32 0, i32 122
  store i32 %37, ptr %39, align 4, !tbaa !77
  br label %40

40:                                               ; preds = %34, %29
  %41 = load ptr, ptr %3, align 8, !tbaa !4
  %42 = getelementptr inbounds nuw %struct.AVCodecContext, ptr %41, i32 0, i32 83
  %43 = load i32, ptr %42, align 8, !tbaa !79
  %44 = icmp eq i32 %43, -1
  br i1 %44, label %45, label %51

45:                                               ; preds = %40
  %46 = load ptr, ptr %6, align 8, !tbaa !33
  %47 = getelementptr inbounds nuw %struct.VAAPIEncodeH264Context, ptr %46, i32 0, i32 3
  %48 = load i32, ptr %47, align 4, !tbaa !80
  %49 = load ptr, ptr %3, align 8, !tbaa !4
  %50 = getelementptr inbounds nuw %struct.AVCodecContext, ptr %49, i32 0, i32 83
  store i32 %48, ptr %50, align 8, !tbaa !79
  br label %51

51:                                               ; preds = %45, %40
  %52 = load ptr, ptr %3, align 8, !tbaa !4
  %53 = getelementptr inbounds nuw %struct.AVCodecContext, ptr %52, i32 0, i32 121
  %54 = load i32, ptr %53, align 8, !tbaa !55
  switch i32 %54, label %65 [
    i32 66, label %55
    i32 88, label %59
    i32 2158, label %61
    i32 122, label %63
    i32 2170, label %63
    i32 144, label %63
    i32 244, label %63
    i32 2292, label %63
    i32 44, label %63
  ]

55:                                               ; preds = %51
  %56 = load ptr, ptr %3, align 8, !tbaa !4
  call void (ptr, i32, ptr, ...) @av_log(ptr noundef %56, i32 noundef 24, ptr noundef @.str.95)
  %57 = load ptr, ptr %3, align 8, !tbaa !4
  %58 = getelementptr inbounds nuw %struct.AVCodecContext, ptr %57, i32 0, i32 121
  store i32 578, ptr %58, align 8, !tbaa !55
  br label %65

59:                                               ; preds = %51
  %60 = load ptr, ptr %3, align 8, !tbaa !4
  call void (ptr, i32, ptr, ...) @av_log(ptr noundef %60, i32 noundef 16, ptr noundef @.str.96)
  store i32 -1163346256, ptr %2, align 4
  store i32 1, ptr %7, align 4
  br label %117

61:                                               ; preds = %51
  %62 = load ptr, ptr %3, align 8, !tbaa !4
  call void (ptr, i32, ptr, ...) @av_log(ptr noundef %62, i32 noundef 16, ptr noundef @.str.97)
  store i32 -1163346256, ptr %2, align 4
  store i32 1, ptr %7, align 4
  br label %117

63:                                               ; preds = %51, %51, %51, %51, %51, %51
  %64 = load ptr, ptr %3, align 8, !tbaa !4
  call void (ptr, i32, ptr, ...) @av_log(ptr noundef %64, i32 noundef 16, ptr noundef @.str.98)
  store i32 -1163346256, ptr %2, align 4
  store i32 1, ptr %7, align 4
  br label %117

65:                                               ; preds = %51, %55
  %66 = load ptr, ptr %3, align 8, !tbaa !4
  %67 = getelementptr inbounds nuw %struct.AVCodecContext, ptr %66, i32 0, i32 122
  %68 = load i32, ptr %67, align 4, !tbaa !77
  %69 = icmp ne i32 %68, -99
  br i1 %69, label %70, label %81

70:                                               ; preds = %65
  %71 = load ptr, ptr %3, align 8, !tbaa !4
  %72 = getelementptr inbounds nuw %struct.AVCodecContext, ptr %71, i32 0, i32 122
  %73 = load i32, ptr %72, align 4, !tbaa !77
  %74 = and i32 %73, -256
  %75 = icmp ne i32 %74, 0
  br i1 %75, label %76, label %81

76:                                               ; preds = %70
  %77 = load ptr, ptr %3, align 8, !tbaa !4
  %78 = load ptr, ptr %3, align 8, !tbaa !4
  %79 = getelementptr inbounds nuw %struct.AVCodecContext, ptr %78, i32 0, i32 122
  %80 = load i32, ptr %79, align 4, !tbaa !77
  call void (ptr, i32, ptr, ...) @av_log(ptr noundef %77, i32 noundef 16, ptr noundef @.str.99, i32 noundef %80)
  store i32 -22, ptr %2, align 4
  store i32 1, ptr %7, align 4
  br label %117

81:                                               ; preds = %70, %65
  %82 = load ptr, ptr %5, align 8, !tbaa !31
  %83 = getelementptr inbounds nuw %struct.VAAPIEncodeContext, ptr %82, i32 0, i32 7
  store i32 13, ptr %83, align 4, !tbaa !81
  %84 = load ptr, ptr %3, align 8, !tbaa !4
  %85 = getelementptr inbounds nuw %struct.AVCodecContext, ptr %84, i32 0, i32 18
  %86 = load i32, ptr %85, align 8, !tbaa !82
  %87 = add nsw i32 %86, 16
  %88 = sub nsw i32 %87, 1
  %89 = and i32 %88, -16
  %90 = load ptr, ptr %4, align 8, !tbaa !29
  %91 = getelementptr inbounds nuw %struct.FFHWBaseEncodeContext, ptr %90, i32 0, i32 5
  store i32 %89, ptr %91, align 8, !tbaa !83
  %92 = load ptr, ptr %3, align 8, !tbaa !4
  %93 = getelementptr inbounds nuw %struct.AVCodecContext, ptr %92, i32 0, i32 19
  %94 = load i32, ptr %93, align 4, !tbaa !84
  %95 = add nsw i32 %94, 16
  %96 = sub nsw i32 %95, 1
  %97 = and i32 %96, -16
  %98 = load ptr, ptr %4, align 8, !tbaa !29
  %99 = getelementptr inbounds nuw %struct.FFHWBaseEncodeContext, ptr %98, i32 0, i32 6
  store i32 %97, ptr %99, align 4, !tbaa !85
  %100 = load ptr, ptr %4, align 8, !tbaa !29
  %101 = getelementptr inbounds nuw %struct.FFHWBaseEncodeContext, ptr %100, i32 0, i32 7
  store i32 16, ptr %101, align 8, !tbaa !86
  %102 = load ptr, ptr %4, align 8, !tbaa !29
  %103 = getelementptr inbounds nuw %struct.FFHWBaseEncodeContext, ptr %102, i32 0, i32 8
  store i32 16, ptr %103, align 4, !tbaa !87
  %104 = load ptr, ptr %6, align 8, !tbaa !33
  %105 = getelementptr inbounds nuw %struct.VAAPIEncodeH264Context, ptr %104, i32 0, i32 2
  %106 = load i32, ptr %105, align 8, !tbaa !88
  %107 = icmp sgt i32 %106, 0
  br i1 %107, label %108, label %114

108:                                              ; preds = %81
  %109 = load ptr, ptr %6, align 8, !tbaa !33
  %110 = getelementptr inbounds nuw %struct.VAAPIEncodeH264Context, ptr %109, i32 0, i32 2
  %111 = load i32, ptr %110, align 8, !tbaa !88
  %112 = load ptr, ptr %5, align 8, !tbaa !31
  %113 = getelementptr inbounds nuw %struct.VAAPIEncodeContext, ptr %112, i32 0, i32 6
  store i32 %111, ptr %113, align 8, !tbaa !89
  br label %114

114:                                              ; preds = %108, %81
  %115 = load ptr, ptr %3, align 8, !tbaa !4
  %116 = call i32 @ff_vaapi_encode_init(ptr noundef %115)
  store i32 %116, ptr %2, align 4
  store i32 1, ptr %7, align 4
  br label %117

117:                                              ; preds = %114, %76, %63, %61, %59
  call void @llvm.lifetime.end.p0(i64 8, ptr %6) #10
  call void @llvm.lifetime.end.p0(i64 8, ptr %5) #10
  call void @llvm.lifetime.end.p0(i64 8, ptr %4) #10
  %118 = load i32, ptr %2, align 4
  ret i32 %118
}