; Function Attrs: cold nounwind optsize uwtable
define internal i32 @vaapi_encode_h264_init(ptr noundef %0) #0 {
  %2 = getelementptr inbounds nuw i8, ptr %0, i64 32
  %3 = load ptr, ptr %2, align 8, !tbaa !4
  %4 = getelementptr inbounds nuw i8, ptr %3, i64 1192
  store ptr @vaapi_encode_type_h264, ptr %4, align 8, !tbaa !27
  %5 = getelementptr inbounds nuw i8, ptr %0, i64 688
  %6 = load i32, ptr %5, align 8, !tbaa !47
  %7 = icmp eq i32 %6, -99
  br i1 %7, label %8, label %11

8:                                                ; preds = %1
  %9 = getelementptr inbounds nuw i8, ptr %3, i64 5900
  %10 = load i32, ptr %9, align 4, !tbaa !48
  store i32 %10, ptr %5, align 8, !tbaa !47
  br label %11

11:                                               ; preds = %8, %1
  %12 = phi i32 [ %10, %8 ], [ %6, %1 ]
  %13 = getelementptr inbounds nuw i8, ptr %0, i64 692
  %14 = load i32, ptr %13, align 4, !tbaa !69
  %15 = icmp eq i32 %14, -99
  br i1 %15, label %16, label %19

16:                                               ; preds = %11
  %17 = getelementptr inbounds nuw i8, ptr %3, i64 5904
  %18 = load i32, ptr %17, align 8, !tbaa !70
  store i32 %18, ptr %13, align 4, !tbaa !69
  br label %19

19:                                               ; preds = %16, %11
  %20 = phi i32 [ %18, %16 ], [ %14, %11 ]
  %21 = getelementptr inbounds nuw i8, ptr %0, i64 424
  %22 = load i32, ptr %21, align 8, !tbaa !71
  %23 = icmp eq i32 %22, -1
  br i1 %23, label %24, label %27

24:                                               ; preds = %19
  %25 = getelementptr inbounds nuw i8, ptr %3, i64 5884
  %26 = load i32, ptr %25, align 4, !tbaa !72
  store i32 %26, ptr %21, align 8, !tbaa !71
  br label %27

27:                                               ; preds = %24, %19
  switch i32 %12, label %32 [
    i32 66, label %28
    i32 88, label %29
    i32 2158, label %30
    i32 122, label %31
    i32 2170, label %31
    i32 144, label %31
    i32 244, label %31
    i32 2292, label %31
    i32 44, label %31
  ]

28:                                               ; preds = %27
  tail call void (ptr, i32, ptr, ...) @av_log(ptr noundef nonnull %0, i32 noundef 24, ptr noundef nonnull @.str.95) #10
  store i32 578, ptr %5, align 8, !tbaa !47
  %.pre = load i32, ptr %13, align 4, !tbaa !69
  br label %32

29:                                               ; preds = %27
  tail call void (ptr, i32, ptr, ...) @av_log(ptr noundef nonnull %0, i32 noundef 16, ptr noundef nonnull @.str.96) #10
  br label %56

30:                                               ; preds = %27
  tail call void (ptr, i32, ptr, ...) @av_log(ptr noundef nonnull %0, i32 noundef 16, ptr noundef nonnull @.str.97) #10
  br label %56

31:                                               ; preds = %27, %27, %27, %27, %27, %27
  tail call void (ptr, i32, ptr, ...) @av_log(ptr noundef nonnull %0, i32 noundef 16, ptr noundef nonnull @.str.98) #10
  br label %56

32:                                               ; preds = %28, %27
  %33 = phi i32 [ %.pre, %28 ], [ %20, %27 ]
  %.not = icmp eq i32 %33, -99
  %.not36 = icmp ult i32 %33, 256
  %or.cond = or i1 %.not, %.not36
  br i1 %or.cond, label %35, label %34

34:                                               ; preds = %32
  tail call void (ptr, i32, ptr, ...) @av_log(ptr noundef nonnull %0, i32 noundef 16, ptr noundef nonnull @.str.99, i32 noundef %33) #10
  br label %56

35:                                               ; preds = %32
  %36 = getelementptr inbounds nuw i8, ptr %3, i64 1220
  store i32 13, ptr %36, align 4, !tbaa !73
  %37 = getelementptr inbounds nuw i8, ptr %0, i64 112
  %38 = load i32, ptr %37, align 8, !tbaa !74
  %39 = add nsw i32 %38, 15
  %40 = and i32 %39, -16
  %41 = getelementptr inbounds nuw i8, ptr %3, i64 32
  store i32 %40, ptr %41, align 8, !tbaa !75
  %42 = getelementptr inbounds nuw i8, ptr %0, i64 116
  %43 = load i32, ptr %42, align 4, !tbaa !76
  %44 = add nsw i32 %43, 15
  %45 = and i32 %44, -16
  %46 = getelementptr inbounds nuw i8, ptr %3, i64 36
  store i32 %45, ptr %46, align 4, !tbaa !77
  %47 = getelementptr inbounds nuw i8, ptr %3, i64 40
  store i32 16, ptr %47, align 8, !tbaa !78
  %48 = getelementptr inbounds nuw i8, ptr %3, i64 44
  store i32 16, ptr %48, align 4, !tbaa !79
  %49 = getelementptr inbounds nuw i8, ptr %3, i64 5880
  %50 = load i32, ptr %49, align 8, !tbaa !80
  %51 = icmp sgt i32 %50, 0
  br i1 %51, label %52, label %54

52:                                               ; preds = %35
  %53 = getelementptr inbounds nuw i8, ptr %3, i64 1216
  store i32 %50, ptr %53, align 8, !tbaa !81
  br label %54

54:                                               ; preds = %52, %35
  %55 = tail call i32 @ff_vaapi_encode_init(ptr noundef nonnull %0) #10
  br label %56

56:                                               ; preds = %54, %34, %31, %30, %29
  %.0 = phi i32 [ -22, %34 ], [ %55, %54 ], [ -1163346256, %31 ], [ -1163346256, %30 ], [ -1163346256, %29 ]
  ret i32 %.0
}